; ModuleID = '54/1111.c'
source_filename = "54/1111.c"
target datalayout = "e-m:e-p270:32:32-p271:32:32-p272:64:64-i64:64-f80:128-n8:16:32:64-S128"
target triple = "x86_64-pc-linux-gnu"

@.str = private unnamed_addr constant [6 x i8] c"%d %d\00", align 1
@.str.1 = private unnamed_addr constant [4 x i8] c"%d\0A\00", align 1

; Function Attrs: noinline nounwind uwtable
define dso_local i32 @pseudo_main() #0 {
  %1 = alloca i32, align 4
  %2 = alloca i32, align 4
  %3 = alloca i32, align 4
  %4 = alloca i32, align 4
  %5 = alloca i32, align 4
  %6 = alloca i32, align 4
  %7 = alloca i32, align 4
  %8 = call i32 (i8*, ...) @__isoc99_scanf(i8* getelementptr inbounds ([6 x i8], [6 x i8]* @.str, i64 0, i64 0), i32* %2, i32* %3)
  store i32 0, i32* %6, align 4
  br label %9

9:                                                ; preds = %0, %48
  %10 = load i32, i32* %6, align 4
  %11 = add nsw i32 %10, 1
  store i32 %11, i32* %6, align 4
  %12 = load i32, i32* %6, align 4
  %13 = load i32, i32* %2, align 4
  %14 = mul nsw i32 %12, %13
  %15 = load i32, i32* %3, align 4
  %16 = add nsw i32 %14, %15
  store i32 %16, i32* %4, align 4
  store i32 1, i32* %7, align 4
  store i32 1, i32* %5, align 4
  br label %17

17:                                               ; preds = %41, %9
  %18 = load i32, i32* %5, align 4
  %19 = load i32, i32* %2, align 4
  %20 = icmp slt i32 %18, %19
  br i1 %20, label %21, label %24

21:                                               ; preds = %17
  %22 = load i32, i32* %7, align 4
  %23 = icmp ne i32 %22, 0
  br label %24

24:                                               ; preds = %21, %17
  %25 = phi i1 [ false, %17 ], [ %23, %21 ]
  br i1 %25, label %26, label %44

26:                                               ; preds = %24
  %27 = load i32, i32* %4, align 4
  %28 = load i32, i32* %2, align 4
  %29 = sub nsw i32 %28, 1
  %30 = srem i32 %27, %29
  %31 = icmp eq i32 %30, 0
  %32 = zext i1 %31 to i32
  store i32 %32, i32* %7, align 4
  %33 = load i32, i32* %4, align 4
  %34 = load i32, i32* %2, align 4
  %35 = sub nsw i32 %34, 1
  %36 = sdiv i32 %33, %35
  %37 = load i32, i32* %2, align 4
  %38 = mul nsw i32 %36, %37
  %39 = load i32, i32* %3, align 4
  %40 = add nsw i32 %38, %39
  store i32 %40, i32* %4, align 4
  br label %41

41:                                               ; preds = %26
  %42 = load i32, i32* %5, align 4
  %43 = add nsw i32 %42, 1
  store i32 %43, i32* %5, align 4
  br label %17

44:                                               ; preds = %24
  %45 = load i32, i32* %7, align 4
  %46 = icmp ne i32 %45, 0
  br i1 %46, label %47, label %48

47:                                               ; preds = %44
  br label %49

48:                                               ; preds = %44
  br label %9

49:                                               ; preds = %47
  %50 = load i32, i32* %4, align 4
  %51 = call i32 (i8*, ...) @printf(i8* getelementptr inbounds ([4 x i8], [4 x i8]* @.str.1, i64 0, i64 0), i32 %50)
  %52 = load i32, i32* %1, align 4
  ret i32 %52
}

declare dso_local i32 @__isoc99_scanf(i8*, ...) #1

declare dso_local i32 @printf(i8*, ...) #1

; Function Attrs: noinline nounwind uwtable
define dso_local i32 @main() #0 {
  %1 = call i32 @pseudo_main()
  ret i32 0
}


!llvm.module.flags = !{!0}
!llvm.ident = !{!1}

!0 = !{i32 1, !"wchar_size", i32 4}
!1 = !{!"clang version 10.0.0-4ubuntu1 "}
