; ModuleID = 'source-C-CXX/53/1111.c'
source_filename = "source-C-CXX/53/1111.c"
target datalayout = "e-m:e-p270:32:32-p271:32:32-p272:64:64-i64:64-f80:128-n8:16:32:64-S128"
target triple = "x86_64-pc-linux-gnu"

@.str = private unnamed_addr constant [6 x i8] c"%d %d\00", align 1
@.str.1 = private unnamed_addr constant [4 x i8] c"%d\0A\00", align 1

; Function Attrs: nofree nounwind sspstrong uwtable
define dso_local i32 @pseudo_main() local_unnamed_addr #0 {
  %1 = alloca i32, align 4
  %2 = alloca i32, align 4
  %3 = bitcast i32* %1 to i8*
  call void @llvm.lifetime.start.p0i8(i64 4, i8* nonnull %3) #3
  %4 = bitcast i32* %2 to i8*
  call void @llvm.lifetime.start.p0i8(i64 4, i8* nonnull %4) #3
  %5 = call i32 (i8*, ...) @__isoc99_scanf(i8* getelementptr inbounds ([6 x i8], [6 x i8]* @.str, i64 0, i64 0), i32* nonnull %1, i32* nonnull %2)
  %6 = load i32, i32* %1, align 4, !tbaa !5
  %7 = load i32, i32* %2, align 4, !tbaa !5
  %8 = add nsw i32 %6, -1
  %9 = icmp sgt i32 %6, 1
  br i1 %9, label %10, label %27

10:                                               ; preds = %0, %26
  %11 = phi i32 [ %12, %26 ], [ 0, %0 ]
  %12 = add nuw nsw i32 %11, 1
  %13 = mul nsw i32 %12, %6
  %14 = add nsw i32 %13, %7
  br label %15

15:                                               ; preds = %10, %15
  %16 = phi i32 [ %14, %10 ], [ %23, %15 ]
  %17 = phi i32 [ 1, %10 ], [ %21, %15 ]
  %18 = srem i32 %16, %8
  %19 = icmp eq i32 %18, 0
  %20 = sdiv i32 %16, %8
  %21 = add nuw nsw i32 %17, 1
  %22 = mul nsw i32 %20, %6
  %23 = add nsw i32 %22, %7
  %24 = icmp slt i32 %21, %6
  %25 = select i1 %24, i1 %19, i1 false
  br i1 %25, label %15, label %26, !llvm.loop !9

26:                                               ; preds = %15
  br i1 %19, label %29, label %10

27:                                               ; preds = %0
  %28 = add nsw i32 %6, %7
  br label %29

29:                                               ; preds = %26, %27
  %30 = phi i32 [ %28, %27 ], [ %23, %26 ]
  %31 = call i32 (i8*, ...) @printf(i8* nonnull dereferenceable(1) getelementptr inbounds ([4 x i8], [4 x i8]* @.str.1, i64 0, i64 0), i32 %30)
  call void @llvm.lifetime.end.p0i8(i64 4, i8* nonnull %4) #3
  call void @llvm.lifetime.end.p0i8(i64 4, i8* nonnull %3) #3
  ret i32 undef
}

; Function Attrs: argmemonly mustprogress nofree nosync nounwind willreturn
declare void @llvm.lifetime.start.p0i8(i64 immarg, i8* nocapture) #1

; Function Attrs: nofree nounwind
declare noundef i32 @__isoc99_scanf(i8* nocapture noundef readonly, ...) local_unnamed_addr #2

; Function Attrs: argmemonly mustprogress nofree nosync nounwind willreturn
declare void @llvm.lifetime.end.p0i8(i64 immarg, i8* nocapture) #1

; Function Attrs: nofree nounwind
declare noundef i32 @printf(i8* nocapture noundef readonly, ...) local_unnamed_addr #2

; Function Attrs: nofree nounwind sspstrong uwtable
define dso_local i32 @main() local_unnamed_addr #0 {
  %1 = alloca i32, align 4
  %2 = alloca i32, align 4
  %3 = bitcast i32* %1 to i8*
  call void @llvm.lifetime.start.p0i8(i64 4, i8* nonnull %3) #3
  %4 = bitcast i32* %2 to i8*
  call void @llvm.lifetime.start.p0i8(i64 4, i8* nonnull %4) #3
  %5 = call i32 (i8*, ...) @__isoc99_scanf(i8* getelementptr inbounds ([6 x i8], [6 x i8]* @.str, i64 0, i64 0), i32* nonnull %1, i32* nonnull %2) #3
  %6 = load i32, i32* %1, align 4, !tbaa !5
  %7 = load i32, i32* %2, align 4, !tbaa !5
  %8 = add nsw i32 %6, -1
  %9 = icmp sgt i32 %6, 1
  br i1 %9, label %10, label %27

10:                                               ; preds = %0, %26
  %11 = phi i32 [ %12, %26 ], [ 0, %0 ]
  %12 = add nuw nsw i32 %11, 1
  %13 = mul nsw i32 %12, %6
  %14 = add nsw i32 %13, %7
  br label %15

15:                                               ; preds = %15, %10
  %16 = phi i32 [ %14, %10 ], [ %23, %15 ]
  %17 = phi i32 [ 1, %10 ], [ %21, %15 ]
  %18 = srem i32 %16, %8
  %19 = icmp eq i32 %18, 0
  %20 = sdiv i32 %16, %8
  %21 = add nuw nsw i32 %17, 1
  %22 = mul nsw i32 %20, %6
  %23 = add nsw i32 %22, %7
  %24 = icmp slt i32 %21, %6
  %25 = select i1 %24, i1 %19, i1 false
  br i1 %25, label %15, label %26, !llvm.loop !9

26:                                               ; preds = %15
  br i1 %19, label %29, label %10

27:                                               ; preds = %0
  %28 = add nsw i32 %7, %6
  br label %29

29:                                               ; preds = %26, %27
  %30 = phi i32 [ %28, %27 ], [ %23, %26 ]
  %31 = call i32 (i8*, ...) @printf(i8* nonnull dereferenceable(1) getelementptr inbounds ([4 x i8], [4 x i8]* @.str.1, i64 0, i64 0), i32 %30) #3
  call void @llvm.lifetime.end.p0i8(i64 4, i8* nonnull %4) #3
  call void @llvm.lifetime.end.p0i8(i64 4, i8* nonnull %3) #3
  ret i32 0
}


!llvm.module.flags = !{!0, !1, !2, !3}
!llvm.ident = !{!4}

!0 = !{i32 1, !"wchar_size", i32 4}
!1 = !{i32 7, !"PIC Level", i32 2}
!2 = !{i32 7, !"PIE Level", i32 2}
!3 = !{i32 7, !"uwtable", i32 1}
!4 = !{!"clang version 13.0.0"}
!5 = !{!6, !6, i64 0}
!6 = !{!"int", !7, i64 0}
!7 = !{!"omnipotent char", !8, i64 0}
!8 = !{!"Simple C/C++ TBAA"}
!9 = distinct !{!9, !10}
!10 = !{!"llvm.loop.mustprogress"}
